target datalayout = "e-m:e-p270:32:32-p271:32:32-p272:64:64-i64:64-i128:128-f80:128-n8:16:32:64-S128"
target triple = "x86_64-pc-linux-gnu"

%struct.X509_VERIFY_PARAM_st = type { ptr, i64, i64, i64, i32, i32, i32, ptr, ptr }

@param_table = internal global ptr null, align 8

; Function Attrs: nounwind uwtable
define hidden void @X509_VERIFY_PARAM_free(ptr noundef %0) #0 {
  %2 = alloca ptr, align 8
  store ptr %0, ptr %2, align 8, !tbaa !6
  %3 = load ptr, ptr %2, align 8, !tbaa !6
  %4 = icmp eq ptr %3, null
  br i1 %4, label %5, label %6

5:                                                ; preds = %1
  br label %12

6:                                                ; preds = %1
  %7 = load ptr, ptr %2, align 8, !tbaa !6
  call void @x509_verify_param_zero(ptr noundef %7)
  %8 = load ptr, ptr %2, align 8, !tbaa !6
  %9 = getelementptr inbounds nuw %struct.X509_VERIFY_PARAM_st, ptr %8, i32 0, i32 8
  %10 = load ptr, ptr %9, align 8, !tbaa !13
  call void @free(ptr noundef %10) #7
  %11 = load ptr, ptr %2, align 8, !tbaa !6
  call void @free(ptr noundef %11) #7
  br label %12

12:                                               ; preds = %6, %5
  ret void
}

; Function Attrs: nounwind uwtable
define hidden i32 @X509_VERIFY_PARAM_add0_table(ptr noundef %0) #0 {
  %2 = alloca i32, align 4
  %3 = alloca ptr, align 8
  %4 = alloca ptr, align 8
  %5 = alloca i32, align 4
  %6 = alloca i64, align 8
  store ptr %0, ptr %3, align 8, !tbaa !6
  call void @llvm.lifetime.start.p0(i64 8, ptr %4) #7
  %7 = load ptr, ptr @param_table, align 8, !tbaa !49
  %8 = icmp ne ptr %7, null
  br i1 %8, label %15, label %9

9:                                                ; preds = %1
  %10 = call ptr @sk_new(ptr noundef @param_cmp)
  store ptr %10, ptr @param_table, align 8, !tbaa !49
  %11 = load ptr, ptr @param_table, align 8, !tbaa !49
  %12 = icmp ne ptr %11, null
  br i1 %12, label %14, label %13

13:                                               ; preds = %9
  store i32 0, ptr %2, align 4
  store i32 1, ptr %5, align 4
  br label %36

14:                                               ; preds = %9
  br label %29

15:                                               ; preds = %1
  call void @llvm.lifetime.start.p0(i64 8, ptr %6) #7
  %16 = load ptr, ptr @param_table, align 8, !tbaa !49
  %17 = load ptr, ptr %3, align 8, !tbaa !6
  %18 = call i32 @sk_find(ptr noundef %16, ptr noundef %6, ptr noundef %17)
  %19 = icmp ne i32 %18, 0
  br i1 %19, label %20, label %28

20:                                               ; preds = %15
  %21 = load ptr, ptr @param_table, align 8, !tbaa !49
  %22 = load i64, ptr %6, align 8, !tbaa !34
  %23 = call ptr @sk_value(ptr noundef %21, i64 noundef %22)
  store ptr %23, ptr %4, align 8, !tbaa !6
  %24 = load ptr, ptr %4, align 8, !tbaa !6
  call void @X509_VERIFY_PARAM_free(ptr noundef %24)
  %25 = load ptr, ptr @param_table, align 8, !tbaa !49
  %26 = load i64, ptr %6, align 8, !tbaa !34
  %27 = call ptr @sk_delete(ptr noundef %25, i64 noundef %26)
  br label %28

28:                                               ; preds = %20, %15
  call void @llvm.lifetime.end.p0(i64 8, ptr %6) #7
  br label %29

29:                                               ; preds = %28, %14
  %30 = load ptr, ptr @param_table, align 8, !tbaa !49
  %31 = load ptr, ptr %3, align 8, !tbaa !6
  %32 = call i64 @sk_push(ptr noundef %30, ptr noundef %31)
  %33 = icmp ne i64 %32, 0
  br i1 %33, label %35, label %34

34:                                               ; preds = %29
  store i32 0, ptr %2, align 4
  store i32 1, ptr %5, align 4
  br label %36

35:                                               ; preds = %29
  store i32 1, ptr %2, align 4
  store i32 1, ptr %5, align 4
  br label %36

36:                                               ; preds = %35, %34, %13
  call void @llvm.lifetime.end.p0(i64 8, ptr %4) #7
  %37 = load i32, ptr %2, align 4
  ret i32 %37
}