; Function Attrs: nounwind uwtable
define hidden range(i32 0, 2) i32 @X509_VERIFY_PARAM_add0_table(ptr noundef %0) local_unnamed_addr #0 {
  %2 = alloca i64, align 8
  %3 = load ptr, ptr @param_table, align 8, !tbaa !37
  %.not = icmp eq ptr %3, null
  br i1 %.not, label %4, label %6

4:                                                ; preds = %1
  %5 = tail call ptr @sk_new(ptr noundef nonnull @param_cmp) #16
  store ptr %5, ptr @param_table, align 8, !tbaa !37
  %.not3 = icmp eq ptr %5, null
  br i1 %.not3, label %23, label %20

6:                                                ; preds = %1
  call void @llvm.lifetime.start.p0(i64 8, ptr nonnull %2) #16
  %7 = call i32 @sk_find(ptr noundef nonnull %3, ptr noundef nonnull %2, ptr noundef %0) #16
  %.not4 = icmp eq i32 %7, 0
  br i1 %.not4, label %19, label %8

8:                                                ; preds = %6
  %9 = load ptr, ptr @param_table, align 8, !tbaa !37
  %10 = load i64, ptr %2, align 8, !tbaa !33
  %11 = call ptr @sk_value(ptr noundef %9, i64 noundef %10) #16
  %12 = icmp eq ptr %11, null
  br i1 %12, label %X509_VERIFY_PARAM_free.exit, label %13

13:                                               ; preds = %8
  call fastcc void @x509_verify_param_zero(ptr noundef %11)
  %14 = getelementptr inbounds nuw i8, ptr %11, i64 56
  %15 = load ptr, ptr %14, align 8, !tbaa !6
  call void @free(ptr noundef %15) #16
  call void @free(ptr noundef nonnull %11) #16
  br label %X509_VERIFY_PARAM_free.exit

X509_VERIFY_PARAM_free.exit:                      ; preds = %8, %13
  %16 = load ptr, ptr @param_table, align 8, !tbaa !37
  %17 = load i64, ptr %2, align 8, !tbaa !33
  %18 = call ptr @sk_delete(ptr noundef %16, i64 noundef %17) #16
  br label %19

19:                                               ; preds = %X509_VERIFY_PARAM_free.exit, %6
  call void @llvm.lifetime.end.p0(i64 8, ptr nonnull %2) #16
  %.pre = load ptr, ptr @param_table, align 8, !tbaa !37
  br label %20

20:                                               ; preds = %4, %19
  %21 = phi ptr [ %5, %4 ], [ %.pre, %19 ]
  %22 = call i64 @sk_push(ptr noundef %21, ptr noundef %0) #16
  %.not5 = icmp ne i64 %22, 0
  %. = zext i1 %.not5 to i32
  br label %23

23:                                               ; preds = %20, %4
  %.0 = phi i32 [ 0, %4 ], [ %., %20 ]
  ret i32 %.0
}